; Function Attrs: nounwind uwtable
define internal ptr @sys_trace_jump_func(ptr noundef readonly captures(none) %0, ptr noundef readonly captures(none) %1, i64 %2, ptr readnone captures(none) %3) #0 {
  %5 = tail call align 8 ptr @llvm.threadlocal.address.p0(ptr align 8 @_Py_tss_tstate)
  %6 = load ptr, ptr %5, align 8, !tbaa !17
  %7 = getelementptr inbounds nuw i8, ptr %6, i64 88
  %8 = load ptr, ptr %7, align 8, !tbaa !107
  %9 = icmp eq ptr %8, null
  br i1 %9, label %trace_line.exit, label %10

10:                                               ; preds = %4
  %11 = getelementptr i8, ptr %1, i64 8
  %12 = load ptr, ptr %11, align 8, !tbaa !111
  %13 = tail call i32 @PyLong_AsInt(ptr noundef %12) #4
  %14 = ashr i32 %13, 1
  %15 = getelementptr i8, ptr %1, i64 16
  %16 = load ptr, ptr %15, align 8, !tbaa !111
  %17 = tail call i32 @PyLong_AsInt(ptr noundef %16) #4
  %18 = ashr i32 %17, 1
  %19 = icmp sgt i32 %18, %14
  br i1 %19, label %trace_line.exit, label %20

20:                                               ; preds = %10
  %21 = load ptr, ptr %1, align 8, !tbaa !111
  %22 = tail call i32 @_Py_Instrumentation_GetLine(ptr noundef %21, i32 noundef %18) #4
  %23 = tail call i32 @_Py_Instrumentation_GetLine(ptr noundef %21, i32 noundef %14) #4
  %.not = icmp eq i32 %22, %23
  br i1 %.not, label %24, label %trace_line.exit

24:                                               ; preds = %20
  %25 = tail call ptr @PyEval_GetFrame() #4
  %26 = icmp eq ptr %25, null
  br i1 %26, label %27, label %29

27:                                               ; preds = %24
  %28 = load ptr, ptr @PyExc_SystemError, align 8, !tbaa !111
  tail call void @PyErr_SetString(ptr noundef %28, ptr noundef nonnull @.str.4) #4
  br label %trace_line.exit

29:                                               ; preds = %24
  %30 = getelementptr inbounds nuw i8, ptr %25, i64 44
  %31 = load i8, ptr %30, align 4, !tbaa !122
  %.not22 = icmp eq i8 %31, 0
  %32 = icmp slt i32 %22, 0
  %or.cond = select i1 %.not22, i1 true, i1 %32
  br i1 %or.cond, label %trace_line.exit, label %33

33:                                               ; preds = %29
  %34 = load i32, ptr %25, align 8, !tbaa !15
  %35 = icmp slt i32 %34, 0
  br i1 %35, label %Py_INCREF.exit.i, label %36

36:                                               ; preds = %33
  %37 = add nuw i32 %34, 1
  store i32 %37, ptr %25, align 8, !tbaa !15
  br label %Py_INCREF.exit.i

Py_INCREF.exit.i:                                 ; preds = %36, %33
  %38 = getelementptr inbounds nuw i8, ptr %25, i64 40
  store i32 %22, ptr %38, align 8, !tbaa !123
  %39 = load ptr, ptr %7, align 8, !tbaa !107
  %40 = getelementptr inbounds nuw i8, ptr %6, i64 104
  %41 = load ptr, ptr %40, align 8, !tbaa !108
  %42 = getelementptr inbounds nuw i8, ptr %0, i64 24
  %43 = load i32, ptr %42, align 8, !tbaa !102
  %44 = tail call i32 %39(ptr noundef %41, ptr noundef nonnull %25, i32 noundef %43, ptr noundef nonnull @_Py_NoneStruct) #4
  store i32 0, ptr %38, align 8, !tbaa !123
  %45 = load i32, ptr %25, align 8, !tbaa !15
  %.not.i.i = icmp sgt i32 %45, -1
  br i1 %.not.i.i, label %46, label %Py_DECREF.exit.i

46:                                               ; preds = %Py_INCREF.exit.i
  %47 = add nsw i32 %45, -1
  store i32 %47, ptr %25, align 8, !tbaa !15
  %48 = icmp eq i32 %47, 0
  br i1 %48, label %49, label %Py_DECREF.exit.i

49:                                               ; preds = %46
  tail call void @_Py_Dealloc(ptr noundef nonnull %25) #4
  br label %Py_DECREF.exit.i

Py_DECREF.exit.i:                                 ; preds = %49, %46, %Py_INCREF.exit.i
  %.not13.i = icmp eq i32 %44, 0
  %_Py_NoneStruct..i = select i1 %.not13.i, ptr @_Py_NoneStruct, ptr null
  br label %trace_line.exit

trace_line.exit:                                  ; preds = %Py_DECREF.exit.i, %10, %27, %29, %20, %4
  %.0 = phi ptr [ @_Py_NoneStruct, %4 ], [ @_PyInstrumentation_DISABLE, %10 ], [ @_PyInstrumentation_DISABLE, %20 ], [ null, %27 ], [ @_Py_NoneStruct, %29 ], [ %_Py_NoneStruct..i, %Py_DECREF.exit.i ]
  ret ptr %.0
}